target datalayout = "e-m:e-p270:32:32-p271:32:32-p272:64:64-i64:64-i128:128-f80:128-n8:16:32:64-S128"
target triple = "x86_64-pc-linux-gnu"

%struct.ident_t = type { i32, i32, i32, i32, ptr }
%"class.ncnn::Mat" = type { ptr, ptr, i64, i32, ptr, i32, i32, i32, i32, i32, i64 }
%"class.ncnn::Option" = type { i8, i32, ptr, ptr, i32, i8, i8, i8, i8, i8, i8, i8, i8, i8, i8, i8, i8, i8, i8, i8, i8, i8, i8, i8, i8, i32, i8, i8, i8, i8, i8, i8, i8, i8, i8, i8, i8, i8 }

@2 = private unnamed_addr constant %struct.ident_t { i32 0, i32 2, i32 0, i32 22, ptr @0 }, align 8

; Function Attrs: mustprogress nounwind uwtable
define internal void @_ZN4ncnnL45gridsample_3d_bilinear_apply_interpolation_p1ERKNS_3MatERS0_S2_RKNS_6OptionE(ptr noundef nonnull align 8 dereferenceable(72) %0, ptr noundef nonnull align 8 dereferenceable(72) %1, ptr noundef nonnull align 8 dereferenceable(72) %2, ptr noundef nonnull align 8 dereferenceable(64) %3) #5 {
  %5 = alloca ptr, align 8
  %6 = alloca ptr, align 8
  %7 = alloca ptr, align 8
  %8 = alloca ptr, align 8
  %9 = alloca i32, align 4
  %10 = alloca i32, align 4
  %11 = alloca i32, align 4
  %12 = alloca i32, align 4
  %13 = alloca i32, align 4
  %14 = call i32 @__kmpc_global_thread_num(ptr @2)
  store ptr %0, ptr %5, align 8, !tbaa !13
  store ptr %1, ptr %6, align 8, !tbaa !13
  store ptr %2, ptr %7, align 8, !tbaa !13
  store ptr %3, ptr %8, align 8, !tbaa !11
  call void @llvm.lifetime.start.p0(i64 4, ptr %9) #17
  %15 = load ptr, ptr %6, align 8, !tbaa !13
  %16 = getelementptr inbounds nuw %"class.ncnn::Mat", ptr %15, i32 0, i32 9
  %17 = load i32, ptr %16, align 8, !tbaa !22
  store i32 %17, ptr %9, align 4, !tbaa !21
  call void @llvm.lifetime.start.p0(i64 4, ptr %10) #17
  %18 = load ptr, ptr %6, align 8, !tbaa !13
  %19 = getelementptr inbounds nuw %"class.ncnn::Mat", ptr %18, i32 0, i32 6
  %20 = load i32, ptr %19, align 4, !tbaa !42
  store i32 %20, ptr %10, align 4, !tbaa !21
  call void @llvm.lifetime.start.p0(i64 4, ptr %11) #17
  %21 = load ptr, ptr %6, align 8, !tbaa !13
  %22 = getelementptr inbounds nuw %"class.ncnn::Mat", ptr %21, i32 0, i32 7
  %23 = load i32, ptr %22, align 8, !tbaa !41
  store i32 %23, ptr %11, align 4, !tbaa !21
  call void @llvm.lifetime.start.p0(i64 4, ptr %12) #17
  %24 = load ptr, ptr %6, align 8, !tbaa !13
  %25 = getelementptr inbounds nuw %"class.ncnn::Mat", ptr %24, i32 0, i32 8
  %26 = load i32, ptr %25, align 4, !tbaa !51
  store i32 %26, ptr %12, align 4, !tbaa !21
  call void @llvm.lifetime.start.p0(i64 4, ptr %13) #17
  %27 = load i32, ptr %10, align 4, !tbaa !21
  %28 = load i32, ptr %11, align 4, !tbaa !21
  %29 = mul nsw i32 %27, %28
  %30 = load i32, ptr %12, align 4, !tbaa !21
  %31 = mul nsw i32 %29, %30
  store i32 %31, ptr %13, align 4, !tbaa !21
  %32 = load ptr, ptr %8, align 8, !tbaa !11
  %33 = getelementptr inbounds nuw %"class.ncnn::Option", ptr %32, i32 0, i32 1
  %34 = load i32, ptr %33, align 4, !tbaa !256
  call void @__kmpc_push_num_threads(ptr @2, i32 %14, i32 %34)
  %35 = load ptr, ptr %5, align 8, !tbaa !13
  %36 = load ptr, ptr %6, align 8, !tbaa !13
  %37 = load ptr, ptr %7, align 8, !tbaa !13
  call void (ptr, i32, ptr, ...) @__kmpc_fork_call(ptr @2, i32 5, ptr @_ZN4ncnnL45gridsample_3d_bilinear_apply_interpolation_p1ERKNS_3MatERS0_S2_RKNS_6OptionE.omp_outlined, ptr %9, ptr %35, ptr %36, ptr %37, ptr %13)
  call void @llvm.lifetime.end.p0(i64 4, ptr %13) #17
  call void @llvm.lifetime.end.p0(i64 4, ptr %12) #17
  call void @llvm.lifetime.end.p0(i64 4, ptr %11) #17
  call void @llvm.lifetime.end.p0(i64 4, ptr %10) #17
  call void @llvm.lifetime.end.p0(i64 4, ptr %9) #17
  ret void
}